target datalayout = "e-m:e-p270:32:32-p271:32:32-p272:64:64-i64:64-i128:128-f80:128-n8:16:32:64-S128"
target triple = "x86_64-pc-linux-gnu"

%"class.std::__cxx11::basic_string" = type { %"struct.std::__cxx11::basic_string<char>::_Alloc_hider", i64, %union.anon }
%"struct.std::__cxx11::basic_string<char>::_Alloc_hider" = type { ptr }
%union.anon = type { i64, [8 x i8] }
%"class.google::LogMessage" = type { ptr, ptr, %"struct.google::LogMessageTime" }
%"struct.google::LogMessageTime" = type { %struct.tm, i64, i32, i64 }
%struct.tm = type { i32, i32, i32, i32, i32, i32, i32, i32, i32, i64, ptr }
%"class.std::unique_ptr" = type { %"struct.std::__uniq_ptr_data" }
%"struct.std::__uniq_ptr_data" = type { %"class.std::__uniq_ptr_impl" }
%"class.std::__uniq_ptr_impl" = type { %"class.std::tuple" }
%"class.std::tuple" = type { %"struct.std::_Tuple_impl" }
%"struct.std::_Tuple_impl" = type { %"struct.std::_Head_base.2" }
%"struct.std::_Head_base.2" = type { ptr }
%"class.google::LogMessageVoidify" = type { i8 }
%"class.google::LogMessageFatal" = type { %"class.google::LogMessage" }
%"class.std::vector.94" = type { %"struct.std::_Vector_base.95" }
%"struct.std::_Vector_base.95" = type { %"struct.std::_Vector_base<const ceres::Manifold *, std::allocator<const ceres::Manifold *>>::_Vector_impl" }
%"struct.std::_Vector_base<const ceres::Manifold *, std::allocator<const ceres::Manifold *>>::_Vector_impl" = type { %"struct.std::_Vector_base<const ceres::Manifold *, std::allocator<const ceres::Manifold *>>::_Vector_impl_data" }
%"struct.std::_Vector_base<const ceres::Manifold *, std::allocator<const ceres::Manifold *>>::_Vector_impl_data" = type { ptr, ptr, ptr }
%"class.ceres::internal::(anonymous namespace)::GradientCheckingCostFunction" = type { %"class.ceres::CostFunction.base", ptr, %"class.ceres::GradientChecker", double, %"class.std::__cxx11::basic_string", ptr }
%"class.ceres::CostFunction.base" = type <{ ptr, %"class.std::vector.107", i32 }>
%"class.std::vector.107" = type { %"struct.std::_Vector_base.108" }
%"struct.std::_Vector_base.108" = type { %"struct.std::_Vector_base<int, std::allocator<int>>::_Vector_impl" }
%"struct.std::_Vector_base<int, std::allocator<int>>::_Vector_impl" = type { %"struct.std::_Vector_base<int, std::allocator<int>>::_Vector_impl_data" }
%"struct.std::_Vector_base<int, std::allocator<int>>::_Vector_impl_data" = type { ptr, ptr, ptr }
%"class.ceres::GradientChecker" = type { %"class.std::vector.94", ptr, %"class.std::unique_ptr" }
%"class.ceres::CostFunction" = type <{ ptr, %"class.std::vector.107", i32, [4 x i8] }>

@.str = private unnamed_addr constant [146 x i8] c"generated/home/dtcxzyw/WorkSpace/Projects/compilers/llvm-opt-benchmark/bench/ceres/ceres-solver/internal/ceres/gradient_checking_cost_function.cc\00", align 1
@.str.11 = private unnamed_addr constant [36 x i8] c"Check failed: callback_ != nullptr \00", align 1

; Function Attrs: mustprogress nounwind uwtable
define linkonce_odr hidden void @_ZN5ceres12CostFunction17set_num_residualsEi(ptr noundef nonnull align 8 dereferenceable(36) %0, i32 noundef %1) #1 comdat align 2 {
  %3 = alloca ptr, align 8
  %4 = alloca i32, align 4
  store ptr %0, ptr %3, align 8
  store i32 %1, ptr %4, align 4
  %5 = load ptr, ptr %3, align 8
  %6 = load i32, ptr %4, align 4
  %7 = getelementptr inbounds %"class.ceres::CostFunction", ptr %5, i32 0, i32 2
  store i32 %6, ptr %7, align 8
  ret void
}

; Function Attrs: mustprogress nounwind uwtable
define linkonce_odr hidden noundef i32 @_ZNK5ceres12CostFunction13num_residualsEv(ptr noundef nonnull align 8 dereferenceable(36) %0) #1 comdat align 2 {
  %2 = alloca ptr, align 8
  store ptr %0, ptr %2, align 8
  %3 = load ptr, ptr %2, align 8
  %4 = getelementptr inbounds %"class.ceres::CostFunction", ptr %3, i32 0, i32 2
  %5 = load i32, ptr %4, align 8
  ret i32 %5
}

; Function Attrs: mustprogress nounwind uwtable
define linkonce_odr hidden noundef ptr @_ZN5ceres12CostFunction29mutable_parameter_block_sizesEv(ptr noundef nonnull align 8 dereferenceable(36) %0) #1 comdat align 2 {
  %2 = alloca ptr, align 8
  store ptr %0, ptr %2, align 8
  %3 = load ptr, ptr %2, align 8
  %4 = getelementptr inbounds %"class.ceres::CostFunction", ptr %3, i32 0, i32 1
  ret ptr %4
}

; Function Attrs: mustprogress nounwind uwtable
define linkonce_odr hidden noundef nonnull align 8 dereferenceable(24) ptr @_ZNK5ceres12CostFunction21parameter_block_sizesEv(ptr noundef nonnull align 8 dereferenceable(36) %0) #1 comdat align 2 {
  %2 = alloca ptr, align 8
  store ptr %0, ptr %2, align 8
  %3 = load ptr, ptr %2, align 8
  %4 = getelementptr inbounds %"class.ceres::CostFunction", ptr %3, i32 0, i32 1
  ret ptr %4
}

; Function Attrs: mustprogress nounwind uwtable
define linkonce_odr hidden void @_ZN6google17LogMessageVoidifyanERSo(ptr noundef nonnull align 1 dereferenceable(1) %0, ptr noundef nonnull align 8 dereferenceable(8) %1) #1 comdat align 2 {
  %3 = alloca ptr, align 8
  %4 = alloca ptr, align 8
  store ptr %0, ptr %3, align 8
  store ptr %1, ptr %4, align 8
  ret void
}

; Function Attrs: mustprogress nounwind uwtable
define linkonce_odr hidden void @_ZN6google17LogMessageVoidifyC2Ev(ptr noundef nonnull align 1 dereferenceable(1) %0) unnamed_addr #1 comdat align 2 {
  %2 = alloca ptr, align 8
  store ptr %0, ptr %2, align 8
  ret void
}

; Function Attrs: mustprogress uwtable
define internal void @_ZN5ceres8internal12_GLOBAL__N_128GradientCheckingCostFunctionC2EPKNS_12CostFunctionEPKSt6vectorIPKNS_8ManifoldESaIS9_EERKNS_18NumericDiffOptionsEdNSt7__cxx1112basic_stringIcSt11char_traitsIcESaIcEEEPNS0_33GradientCheckingIterationCallbackE(ptr noundef nonnull align 8 dereferenceable(136) %0, ptr noundef %1, ptr noundef %2, ptr noundef nonnull align 8 dereferenceable(40) %3, double noundef %4, ptr noundef %5, ptr noundef %6) unnamed_addr #2 align 2 personality ptr @__gxx_personality_v0 {
  %8 = alloca ptr, align 8
  %9 = alloca ptr, align 8
  %10 = alloca ptr, align 8
  %11 = alloca ptr, align 8
  %12 = alloca double, align 8
  %13 = alloca ptr, align 8
  %14 = alloca ptr, align 8
  %15 = alloca ptr, align 8
  %16 = alloca i32, align 4
  %17 = alloca %"class.google::LogMessageVoidify", align 1
  %18 = alloca %"class.google::LogMessageFatal", align 8
  %19 = alloca i1, align 1
  %20 = alloca ptr, align 8
  store ptr %0, ptr %8, align 8
  store ptr %1, ptr %9, align 8
  store ptr %2, ptr %10, align 8
  store ptr %3, ptr %11, align 8
  store double %4, ptr %12, align 8
  store ptr %5, ptr %13, align 8
  store ptr %6, ptr %14, align 8
  %21 = load ptr, ptr %8, align 8
  call void @_ZN5ceres12CostFunctionC2Ev(ptr noundef nonnull align 8 dereferenceable(36) %21)
  store ptr getelementptr inbounds ({ [5 x ptr] }, ptr @_ZTVN5ceres8internal12_GLOBAL__N_128GradientCheckingCostFunctionE, i32 0, i32 0, i32 2), ptr %21, align 8
  %22 = getelementptr inbounds %"class.ceres::internal::(anonymous namespace)::GradientCheckingCostFunction", ptr %21, i32 0, i32 1
  %23 = load ptr, ptr %9, align 8
  store ptr %23, ptr %22, align 8
  %24 = getelementptr inbounds %"class.ceres::internal::(anonymous namespace)::GradientCheckingCostFunction", ptr %21, i32 0, i32 2
  %25 = load ptr, ptr %9, align 8
  %26 = load ptr, ptr %10, align 8
  %27 = load ptr, ptr %11, align 8
  invoke void @_ZN5ceres15GradientCheckerC1EPKNS_12CostFunctionEPKSt6vectorIPKNS_8ManifoldESaIS7_EERKNS_18NumericDiffOptionsE(ptr noundef nonnull align 8 dereferenceable(40) %24, ptr noundef %25, ptr noundef %26, ptr noundef nonnull align 8 dereferenceable(40) %27)
          to label %28 unwind label %49

28:                                               ; preds = %7
  %29 = getelementptr inbounds %"class.ceres::internal::(anonymous namespace)::GradientCheckingCostFunction", ptr %21, i32 0, i32 3
  %30 = load double, ptr %12, align 8
  store double %30, ptr %29, align 8
  %31 = getelementptr inbounds %"class.ceres::internal::(anonymous namespace)::GradientCheckingCostFunction", ptr %21, i32 0, i32 4
  call void @_ZNSt7__cxx1112basic_stringIcSt11char_traitsIcESaIcEEC1EOS4_(ptr noundef nonnull align 8 dereferenceable(32) %31, ptr noundef nonnull align 8 dereferenceable(32) %5) #14
  %32 = getelementptr inbounds %"class.ceres::internal::(anonymous namespace)::GradientCheckingCostFunction", ptr %21, i32 0, i32 5
  %33 = load ptr, ptr %14, align 8
  store ptr %33, ptr %32, align 8
  %34 = getelementptr inbounds %"class.ceres::internal::(anonymous namespace)::GradientCheckingCostFunction", ptr %21, i32 0, i32 5
  %35 = load ptr, ptr %34, align 8
  %36 = icmp ne ptr %35, null
  %37 = xor i1 %36, true
  store i1 false, ptr %19, align 1
  br i1 %37, label %39, label %38

38:                                               ; preds = %28
  br label %46

39:                                               ; preds = %28
  invoke void @_ZN6google17LogMessageVoidifyC2Ev(ptr noundef nonnull align 1 dereferenceable(1) %17)
          to label %40 unwind label %53

40:                                               ; preds = %39
  invoke void @_ZN6google15LogMessageFatalC1EPKci(ptr noundef nonnull align 8 dereferenceable(96) %18, ptr noundef @.str, i32 noundef 72)
          to label %41 unwind label %53

41:                                               ; preds = %40
  store i1 true, ptr %19, align 1
  %42 = invoke noundef nonnull align 8 dereferenceable(8) ptr @_ZN6google10LogMessage6streamEv(ptr noundef nonnull align 8 dereferenceable(96) %18)
          to label %43 unwind label %57

43:                                               ; preds = %41
  %44 = invoke noundef nonnull align 8 dereferenceable(8) ptr @_ZStlsISt11char_traitsIcEERSt13basic_ostreamIcT_ES5_PKc(ptr noundef nonnull align 8 dereferenceable(8) %42, ptr noundef @.str.11)
          to label %45 unwind label %57

45:                                               ; preds = %43
  call void @_ZN6google17LogMessageVoidifyanERSo(ptr noundef nonnull align 1 dereferenceable(1) %17, ptr noundef nonnull align 8 dereferenceable(8) %44)
  br label %46

46:                                               ; preds = %45, %38
  %47 = load i1, ptr %19, align 1
  br i1 %47, label %48, label %63

48:                                               ; preds = %46
  call void @_ZN6google15LogMessageFatalD1Ev(ptr noundef nonnull align 8 dereferenceable(96) %18) #15
  unreachable

49:                                               ; preds = %7
  %50 = landingpad { ptr, i32 }
          cleanup
  %51 = extractvalue { ptr, i32 } %50, 0
  store ptr %51, ptr %15, align 8
  %52 = extractvalue { ptr, i32 } %50, 1
  store i32 %52, ptr %16, align 4
  br label %79

53:                                               ; preds = %73, %70, %68, %63, %40, %39
  %54 = landingpad { ptr, i32 }
          cleanup
  %55 = extractvalue { ptr, i32 } %54, 0
  store ptr %55, ptr %15, align 8
  %56 = extractvalue { ptr, i32 } %54, 1
  store i32 %56, ptr %16, align 4
  br label %78

57:                                               ; preds = %43, %41
  %58 = landingpad { ptr, i32 }
          cleanup
  %59 = extractvalue { ptr, i32 } %58, 0
  store ptr %59, ptr %15, align 8
  %60 = extractvalue { ptr, i32 } %58, 1
  store i32 %60, ptr %16, align 4
  %61 = load i1, ptr %19, align 1
  br i1 %61, label %75, label %77

62:                                               ; No predecessors!
  br label %63

63:                                               ; preds = %62, %46
  %64 = load ptr, ptr %9, align 8
  %65 = call noundef nonnull align 8 dereferenceable(24) ptr @_ZNK5ceres12CostFunction21parameter_block_sizesEv(ptr noundef nonnull align 8 dereferenceable(36) %64)
  store ptr %65, ptr %20, align 8
  %66 = load ptr, ptr %20, align 8
  %67 = invoke noundef ptr @_ZN5ceres12CostFunction29mutable_parameter_block_sizesEv(ptr noundef nonnull align 8 dereferenceable(36) %21)
          to label %68 unwind label %53

68:                                               ; preds = %63
  %69 = invoke noundef nonnull align 8 dereferenceable(24) ptr @_ZNSt6vectorIiSaIiEEaSERKS1_(ptr noundef nonnull align 8 dereferenceable(24) %67, ptr noundef nonnull align 8 dereferenceable(24) %66)
          to label %70 unwind label %53

70:                                               ; preds = %68
  %71 = load ptr, ptr %9, align 8
  %72 = invoke noundef i32 @_ZNK5ceres12CostFunction13num_residualsEv(ptr noundef nonnull align 8 dereferenceable(36) %71)
          to label %73 unwind label %53

73:                                               ; preds = %70
  invoke void @_ZN5ceres12CostFunction17set_num_residualsEi(ptr noundef nonnull align 8 dereferenceable(36) %21, i32 noundef %72)
          to label %74 unwind label %53

74:                                               ; preds = %73
  ret void

75:                                               ; preds = %57
  call void @_ZN6google15LogMessageFatalD1Ev(ptr noundef nonnull align 8 dereferenceable(96) %18) #15
  unreachable

76:                                               ; No predecessors!
  br label %77

77:                                               ; preds = %76, %57
  br label %78

78:                                               ; preds = %77, %53
  call void @_ZNSt7__cxx1112basic_stringIcSt11char_traitsIcESaIcEED1Ev(ptr noundef nonnull align 8 dereferenceable(32) %31) #14
  call void @_ZN5ceres15GradientCheckerD2Ev(ptr noundef nonnull align 8 dereferenceable(40) %24) #14
  br label %79

79:                                               ; preds = %78, %49
  call void @_ZN5ceres12CostFunctionD2Ev(ptr noundef nonnull align 8 dereferenceable(36) %21) #14
  br label %80

80:                                               ; preds = %79
  %81 = load ptr, ptr %15, align 8
  %82 = load i32, ptr %16, align 4
  %83 = insertvalue { ptr, i32 } poison, ptr %81, 0
  %84 = insertvalue { ptr, i32 } %83, i32 %82, 1
  resume { ptr, i32 } %84
}