; Function Attrs: mustprogress uwtable
define internal fastcc void @_ZN5ceres8internal12_GLOBAL__N_128GradientCheckingCostFunctionC2EPKNS_12CostFunctionEPKSt6vectorIPKNS_8ManifoldESaIS9_EERKNS_18NumericDiffOptionsEdNSt7__cxx1112basic_stringIcSt11char_traitsIcESaIcEEEPNS0_33GradientCheckingIterationCallbackE(ptr noundef nonnull align 8 dereferenceable(136) %0, ptr noundef %1, ptr noundef %2, ptr noundef nonnull align 8 dereferenceable(40) %3, double noundef %4, ptr noundef %5, ptr noundef %6) unnamed_addr #2 align 2 personality ptr @__gxx_personality_v0 {
  %8 = alloca %"class.google::LogMessageFatal", align 8
  tail call void @_ZN5ceres12CostFunctionC2Ev(ptr noundef nonnull align 8 dereferenceable(36) %0)
  store ptr getelementptr inbounds ({ [5 x ptr] }, ptr @_ZTVN5ceres8internal12_GLOBAL__N_128GradientCheckingCostFunctionE, i64 0, i32 0, i64 2), ptr %0, align 8
  %9 = getelementptr inbounds i8, ptr %0, i64 40
  store ptr %1, ptr %9, align 8
  %10 = getelementptr inbounds i8, ptr %0, i64 48
  invoke void @_ZN5ceres15GradientCheckerC1EPKNS_12CostFunctionEPKSt6vectorIPKNS_8ManifoldESaIS7_EERKNS_18NumericDiffOptionsE(ptr noundef nonnull align 8 dereferenceable(40) %10, ptr noundef %1, ptr noundef %2, ptr noundef nonnull align 8 dereferenceable(40) %3)
          to label %11 unwind label %21

11:                                               ; preds = %7
  %12 = getelementptr inbounds i8, ptr %0, i64 88
  store double %4, ptr %12, align 8
  %13 = getelementptr inbounds i8, ptr %0, i64 96
  tail call void @_ZNSt7__cxx1112basic_stringIcSt11char_traitsIcESaIcEEC1EOS4_(ptr noundef nonnull align 8 dereferenceable(32) %13, ptr noundef nonnull align 8 dereferenceable(32) %5) #17
  %14 = getelementptr inbounds i8, ptr %0, i64 128
  store ptr %6, ptr %14, align 8
  %.not = icmp eq ptr %6, null
  br i1 %.not, label %15, label %.critedge

15:                                               ; preds = %11
  invoke void @_ZN6google15LogMessageFatalC1EPKci(ptr noundef nonnull align 8 dereferenceable(96) %8, ptr noundef nonnull @.str, i32 noundef 72)
          to label %16 unwind label %23

16:                                               ; preds = %15
  %17 = invoke noundef nonnull align 8 dereferenceable(8) ptr @_ZN6google10LogMessage6streamEv(ptr noundef nonnull align 8 dereferenceable(96) %8)
          to label %18 unwind label %25

18:                                               ; preds = %16
  %19 = invoke noundef nonnull align 8 dereferenceable(8) ptr @_ZStlsISt11char_traitsIcEERSt13basic_ostreamIcT_ES5_PKc(ptr noundef nonnull align 8 dereferenceable(8) %17, ptr noundef nonnull @.str.11)
          to label %20 unwind label %25

20:                                               ; preds = %18
  call void @_ZN6google15LogMessageFatalD1Ev(ptr noundef nonnull align 8 dereferenceable(96) %8) #21
  unreachable

21:                                               ; preds = %7
  %22 = landingpad { ptr, i32 }
          cleanup
  br label %34

23:                                               ; preds = %.critedge, %15
  %24 = landingpad { ptr, i32 }
          cleanup
  call void @_ZNSt7__cxx1112basic_stringIcSt11char_traitsIcESaIcEED1Ev(ptr noundef nonnull align 8 dereferenceable(32) %13) #17
  call void @_ZN5ceres15GradientCheckerD2Ev(ptr noundef nonnull align 8 dereferenceable(40) %10) #17
  br label %34

25:                                               ; preds = %18, %16
  %26 = landingpad { ptr, i32 }
          cleanup
  call void @_ZN6google15LogMessageFatalD1Ev(ptr noundef nonnull align 8 dereferenceable(96) %8) #21
  unreachable

.critedge:                                        ; preds = %11
  %27 = getelementptr inbounds i8, ptr %1, i64 8
  %28 = getelementptr inbounds i8, ptr %0, i64 8
  %29 = invoke noundef nonnull align 8 dereferenceable(24) ptr @_ZNSt6vectorIiSaIiEEaSERKS1_(ptr noundef nonnull align 8 dereferenceable(24) %28, ptr noundef nonnull align 8 dereferenceable(24) %27)
          to label %30 unwind label %23

30:                                               ; preds = %.critedge
  %31 = getelementptr inbounds i8, ptr %1, i64 32
  %32 = load i32, ptr %31, align 8
  %33 = getelementptr inbounds i8, ptr %0, i64 32
  store i32 %32, ptr %33, align 8
  ret void

34:                                               ; preds = %23, %21
  %.pn = phi { ptr, i32 } [ %24, %23 ], [ %22, %21 ]
  call void @_ZN5ceres12CostFunctionD2Ev(ptr noundef nonnull align 8 dereferenceable(36) %0) #17
  resume { ptr, i32 } %.pn
}